; Function Attrs: mustprogress nofree norecurse nosync nounwind willreturn memory(argmem: read) uwtable
define range(i64 0, -9223372036854775807) i64 @ZSTD_getBlockSize(ptr noundef readonly captures(none) %0) local_unnamed_addr #8 {
  %2 = getelementptr i8, ptr %0, i64 244
  %.val = load i32, ptr %2, align 4, !tbaa !48
  %3 = getelementptr i8, ptr %0, i64 392
  %.val1 = load i64, ptr %3, align 8, !tbaa !170
  %4 = zext nneg i32 %.val to i64
  %5 = shl nuw i64 1, %4
  %..i = tail call range(i64 0, -9223372036854775807) i64 @llvm.umin.i64(i64 %.val1, i64 %5)
  ret i64 %..i
}